; ModuleID = '53/196.c'
source_filename = "53/196.c"
target datalayout = "e-m:e-p270:32:32-p271:32:32-p272:64:64-i64:64-f80:128-n8:16:32:64-S128"
target triple = "x86_64-pc-linux-gnu"

@.str = private unnamed_addr constant [3 x i8] c"%d\00", align 1
@.str.1 = private unnamed_addr constant [4 x i8] c"%d,\00", align 1
@.str.2 = private unnamed_addr constant [4 x i8] c"%d\0A\00", align 1

; Function Attrs: noinline nounwind uwtable
define dso_local void @main() #0 {
  %1 = alloca [100 x i32], align 16
  %2 = alloca [100 x i32], align 16
  %3 = alloca i32, align 4
  %4 = alloca i32, align 4
  %5 = alloca i32, align 4
  %6 = alloca i32, align 4
  %7 = alloca i32, align 4
  %8 = bitcast [100 x i32]* %2 to i8*
  call void @llvm.memset.p0i8.i64(i8* align 16 %8, i8 0, i64 400, i1 false)
  store i32 0, i32* %4, align 4
  store i32 1, i32* %5, align 4
  store i32 1, i32* %7, align 4
  %9 = call i32 (i8*, ...) @__isoc99_scanf(i8* getelementptr inbounds ([3 x i8], [3 x i8]* @.str, i64 0, i64 0), i32* %6)
  store i32 0, i32* %3, align 4
  br label %10

10:                                               ; preds = %19, %0
  %11 = load i32, i32* %3, align 4
  %12 = load i32, i32* %6, align 4
  %13 = icmp slt i32 %11, %12
  br i1 %13, label %14, label %22

14:                                               ; preds = %10
  %15 = load i32, i32* %3, align 4
  %16 = sext i32 %15 to i64
  %17 = getelementptr inbounds [100 x i32], [100 x i32]* %1, i64 0, i64 %16
  %18 = call i32 (i8*, ...) @__isoc99_scanf(i8* getelementptr inbounds ([3 x i8], [3 x i8]* @.str, i64 0, i64 0), i32* %17)
  br label %19

19:                                               ; preds = %14
  %20 = load i32, i32* %3, align 4
  %21 = add nsw i32 %20, 1
  store i32 %21, i32* %3, align 4
  br label %10

22:                                               ; preds = %10
  %23 = getelementptr inbounds [100 x i32], [100 x i32]* %1, i64 0, i64 0
  %24 = load i32, i32* %23, align 16
  %25 = getelementptr inbounds [100 x i32], [100 x i32]* %2, i64 0, i64 0
  store i32 %24, i32* %25, align 16
  store i32 1, i32* %3, align 4
  br label %26

26:                                               ; preds = %67, %22
  %27 = load i32, i32* %3, align 4
  %28 = load i32, i32* %6, align 4
  %29 = icmp slt i32 %27, %28
  br i1 %29, label %30, label %70

30:                                               ; preds = %26
  br label %31

31:                                               ; preds = %47, %30
  %32 = load i32, i32* %4, align 4
  %33 = load i32, i32* %5, align 4
  %34 = icmp slt i32 %32, %33
  br i1 %34, label %35, label %45

35:                                               ; preds = %31
  %36 = load i32, i32* %4, align 4
  %37 = sext i32 %36 to i64
  %38 = getelementptr inbounds [100 x i32], [100 x i32]* %2, i64 0, i64 %37
  %39 = load i32, i32* %38, align 4
  %40 = load i32, i32* %3, align 4
  %41 = sext i32 %40 to i64
  %42 = getelementptr inbounds [100 x i32], [100 x i32]* %1, i64 0, i64 %41
  %43 = load i32, i32* %42, align 4
  %44 = icmp ne i32 %39, %43
  br label %45

45:                                               ; preds = %35, %31
  %46 = phi i1 [ false, %31 ], [ %44, %35 ]
  br i1 %46, label %47, label %50

47:                                               ; preds = %45
  %48 = load i32, i32* %4, align 4
  %49 = add nsw i32 %48, 1
  store i32 %49, i32* %4, align 4
  br label %31

50:                                               ; preds = %45
  %51 = load i32, i32* %4, align 4
  %52 = load i32, i32* %5, align 4
  %53 = icmp eq i32 %51, %52
  br i1 %53, label %54, label %65

54:                                               ; preds = %50
  %55 = load i32, i32* %5, align 4
  %56 = add nsw i32 %55, 1
  store i32 %56, i32* %5, align 4
  %57 = load i32, i32* %3, align 4
  %58 = sext i32 %57 to i64
  %59 = getelementptr inbounds [100 x i32], [100 x i32]* %1, i64 0, i64 %58
  %60 = load i32, i32* %59, align 4
  %61 = load i32, i32* %5, align 4
  %62 = sub nsw i32 %61, 1
  %63 = sext i32 %62 to i64
  %64 = getelementptr inbounds [100 x i32], [100 x i32]* %2, i64 0, i64 %63
  store i32 %60, i32* %64, align 4
  store i32 0, i32* %4, align 4
  br label %66

65:                                               ; preds = %50
  store i32 0, i32* %4, align 4
  br label %66

66:                                               ; preds = %65, %54
  br label %67

67:                                               ; preds = %66
  %68 = load i32, i32* %3, align 4
  %69 = add nsw i32 %68, 1
  store i32 %69, i32* %3, align 4
  br label %26

70:                                               ; preds = %26
  store i32 0, i32* %3, align 4
  br label %71

71:                                               ; preds = %82, %70
  %72 = load i32, i32* %3, align 4
  %73 = load i32, i32* %5, align 4
  %74 = sub nsw i32 %73, 1
  %75 = icmp slt i32 %72, %74
  br i1 %75, label %76, label %85

76:                                               ; preds = %71
  %77 = load i32, i32* %3, align 4
  %78 = sext i32 %77 to i64
  %79 = getelementptr inbounds [100 x i32], [100 x i32]* %2, i64 0, i64 %78
  %80 = load i32, i32* %79, align 4
  %81 = call i32 (i8*, ...) @printf(i8* getelementptr inbounds ([4 x i8], [4 x i8]* @.str.1, i64 0, i64 0), i32 %80)
  br label %82

82:                                               ; preds = %76
  %83 = load i32, i32* %3, align 4
  %84 = add nsw i32 %83, 1
  store i32 %84, i32* %3, align 4
  br label %71

85:                                               ; preds = %71
  %86 = load i32, i32* %5, align 4
  %87 = sub nsw i32 %86, 1
  %88 = sext i32 %87 to i64
  %89 = getelementptr inbounds [100 x i32], [100 x i32]* %2, i64 0, i64 %88
  %90 = load i32, i32* %89, align 4
  %91 = call i32 (i8*, ...) @printf(i8* getelementptr inbounds ([4 x i8], [4 x i8]* @.str.2, i64 0, i64 0), i32 %90)
  ret void
}

; Function Attrs: argmemonly nounwind willreturn
declare void @llvm.memset.p0i8.i64(i8* nocapture writeonly, i8, i64, i1 immarg) #1

declare dso_local i32 @__isoc99_scanf(i8*, ...) #2

declare dso_local i32 @printf(i8*, ...) #2


!llvm.module.flags = !{!0}
!llvm.ident = !{!1}

!0 = !{i32 1, !"wchar_size", i32 4}
!1 = !{!"clang version 10.0.0-4ubuntu1 "}
